; Function Attrs: mustprogress nofree norecurse nosync nounwind willreturn memory(argmem: readwrite) uwtable
define noundef nonnull align 4 dereferenceable(64) ptr @_ZN32pxrInternal_v0_24__pxrReserved__10GfMatrix4fmIERKS0_(ptr noundef nonnull returned align 4 dereferenceable(64) %0, ptr noundef nonnull readonly align 4 captures(none) dereferenceable(64) %1) local_unnamed_addr #2 align 2 {
  %3 = load float, ptr %1, align 4
  %4 = load float, ptr %0, align 4
  %5 = fsub float %4, %3
  store float %5, ptr %0, align 4
  %6 = getelementptr inbounds nuw i8, ptr %1, i64 4
  %7 = load float, ptr %6, align 4
  %8 = getelementptr inbounds nuw i8, ptr %0, i64 4
  %9 = load float, ptr %8, align 4
  %10 = fsub float %9, %7
  store float %10, ptr %8, align 4
  %11 = getelementptr inbounds nuw i8, ptr %1, i64 8
  %12 = load float, ptr %11, align 4
  %13 = getelementptr inbounds nuw i8, ptr %0, i64 8
  %14 = load float, ptr %13, align 4
  %15 = fsub float %14, %12
  store float %15, ptr %13, align 4
  %16 = getelementptr inbounds nuw i8, ptr %1, i64 12
  %17 = load float, ptr %16, align 4
  %18 = getelementptr inbounds nuw i8, ptr %0, i64 12
  %19 = load float, ptr %18, align 4
  %20 = fsub float %19, %17
  store float %20, ptr %18, align 4
  %21 = getelementptr inbounds nuw i8, ptr %1, i64 16
  %22 = load float, ptr %21, align 4
  %23 = getelementptr inbounds nuw i8, ptr %0, i64 16
  %24 = load float, ptr %23, align 4
  %25 = fsub float %24, %22
  store float %25, ptr %23, align 4
  %26 = getelementptr inbounds nuw i8, ptr %1, i64 20
  %27 = load float, ptr %26, align 4
  %28 = getelementptr inbounds nuw i8, ptr %0, i64 20
  %29 = load float, ptr %28, align 4
  %30 = fsub float %29, %27
  store float %30, ptr %28, align 4
  %31 = getelementptr inbounds nuw i8, ptr %1, i64 24
  %32 = load float, ptr %31, align 4
  %33 = getelementptr inbounds nuw i8, ptr %0, i64 24
  %34 = load float, ptr %33, align 4
  %35 = fsub float %34, %32
  store float %35, ptr %33, align 4
  %36 = getelementptr inbounds nuw i8, ptr %1, i64 28
  %37 = load float, ptr %36, align 4
  %38 = getelementptr inbounds nuw i8, ptr %0, i64 28
  %39 = load float, ptr %38, align 4
  %40 = fsub float %39, %37
  store float %40, ptr %38, align 4
  %41 = getelementptr inbounds nuw i8, ptr %1, i64 32
  %42 = load float, ptr %41, align 4
  %43 = getelementptr inbounds nuw i8, ptr %0, i64 32
  %44 = load float, ptr %43, align 4
  %45 = fsub float %44, %42
  store float %45, ptr %43, align 4
  %46 = getelementptr inbounds nuw i8, ptr %1, i64 36
  %47 = load float, ptr %46, align 4
  %48 = getelementptr inbounds nuw i8, ptr %0, i64 36
  %49 = load float, ptr %48, align 4
  %50 = fsub float %49, %47
  store float %50, ptr %48, align 4
  %51 = getelementptr inbounds nuw i8, ptr %1, i64 40
  %52 = load float, ptr %51, align 4
  %53 = getelementptr inbounds nuw i8, ptr %0, i64 40
  %54 = load float, ptr %53, align 4
  %55 = fsub float %54, %52
  store float %55, ptr %53, align 4
  %56 = getelementptr inbounds nuw i8, ptr %1, i64 44
  %57 = load float, ptr %56, align 4
  %58 = getelementptr inbounds nuw i8, ptr %0, i64 44
  %59 = load float, ptr %58, align 4
  %60 = fsub float %59, %57
  store float %60, ptr %58, align 4
  %61 = getelementptr inbounds nuw i8, ptr %1, i64 48
  %62 = load float, ptr %61, align 4
  %63 = getelementptr inbounds nuw i8, ptr %0, i64 48
  %64 = load float, ptr %63, align 4
  %65 = fsub float %64, %62
  store float %65, ptr %63, align 4
  %66 = getelementptr inbounds nuw i8, ptr %1, i64 52
  %67 = load float, ptr %66, align 4
  %68 = getelementptr inbounds nuw i8, ptr %0, i64 52
  %69 = load float, ptr %68, align 4
  %70 = fsub float %69, %67
  store float %70, ptr %68, align 4
  %71 = getelementptr inbounds nuw i8, ptr %1, i64 56
  %72 = load float, ptr %71, align 4
  %73 = getelementptr inbounds nuw i8, ptr %0, i64 56
  %74 = load float, ptr %73, align 4
  %75 = fsub float %74, %72
  store float %75, ptr %73, align 4
  %76 = getelementptr inbounds nuw i8, ptr %1, i64 60
  %77 = load float, ptr %76, align 4
  %78 = getelementptr inbounds nuw i8, ptr %0, i64 60
  %79 = load float, ptr %78, align 4
  %80 = fsub float %79, %77
  store float %80, ptr %78, align 4
  ret ptr %0
}